target datalayout = "e-m:e-p270:32:32-p271:32:32-p272:64:64-i64:64-i128:128-f80:128-n8:16:32:64-S128"
target triple = "x86_64-pc-linux-gnu"

%struct.lxb_selectors_t = type { ptr, ptr, i32 }
%struct.lxb_css_selector_list = type { ptr, ptr, ptr, ptr, ptr, ptr, i32 }
%struct.lxb_selectors_entry_child = type { ptr, ptr }

; Function Attrs: nounwind uwtable
define internal ptr @lxb_selectors_next(ptr noundef %0, ptr noundef %1, ptr noundef %2, ptr noundef %3, ptr noundef %4, ptr noundef %5) #0 {
  %7 = alloca ptr, align 8
  %8 = alloca ptr, align 8
  %9 = alloca ptr, align 8
  %10 = alloca ptr, align 8
  %11 = alloca ptr, align 8
  %12 = alloca ptr, align 8
  %13 = alloca ptr, align 8
  %14 = alloca ptr, align 8
  store ptr %0, ptr %8, align 8
  store ptr %1, ptr %9, align 8
  store ptr %2, ptr %10, align 8
  store ptr %3, ptr %11, align 8
  store ptr %4, ptr %12, align 8
  store ptr %5, ptr %13, align 8
  %15 = load ptr, ptr %10, align 8
  store ptr %15, ptr %14, align 8
  %16 = load ptr, ptr %11, align 8
  %17 = icmp eq ptr %16, null
  br i1 %17, label %18, label %19

18:                                               ; preds = %6
  store ptr null, ptr %7, align 8
  br label %90

19:                                               ; preds = %6
  %20 = load ptr, ptr %10, align 8
  %21 = icmp eq ptr %20, null
  br i1 %21, label %22, label %32

22:                                               ; preds = %19
  %23 = load ptr, ptr %8, align 8
  %24 = getelementptr inbounds %struct.lxb_selectors_t, ptr %23, i32 0, i32 1
  %25 = load ptr, ptr %24, align 8
  %26 = call ptr @lexbor_dobject_calloc(ptr noundef %25)
  store ptr %26, ptr %10, align 8
  %27 = load ptr, ptr %10, align 8
  %28 = icmp eq ptr %27, null
  br i1 %28, label %29, label %30

29:                                               ; preds = %22
  br label %87

30:                                               ; preds = %22
  %31 = load ptr, ptr %10, align 8
  store ptr %31, ptr %14, align 8
  br label %32

32:                                               ; preds = %30, %19
  br label %33

33:                                               ; preds = %84, %32
  %34 = load ptr, ptr %8, align 8
  %35 = load ptr, ptr %9, align 8
  %36 = load ptr, ptr %10, align 8
  %37 = getelementptr inbounds %struct.lxb_selectors_entry_child, ptr %36, i32 0, i32 0
  %38 = load ptr, ptr %37, align 8
  %39 = load ptr, ptr %11, align 8
  %40 = getelementptr inbounds %struct.lxb_css_selector_list, ptr %39, i32 0, i32 0
  %41 = load ptr, ptr %40, align 8
  %42 = load ptr, ptr %12, align 8
  %43 = load ptr, ptr %13, align 8
  %44 = call ptr @lxb_selectors_next_by_selector(ptr noundef %34, ptr noundef %35, ptr noundef %38, ptr noundef %41, ptr noundef %42, ptr noundef %43)
  %45 = load ptr, ptr %10, align 8
  %46 = getelementptr inbounds %struct.lxb_selectors_entry_child, ptr %45, i32 0, i32 0
  store ptr %44, ptr %46, align 8
  %47 = load ptr, ptr %10, align 8
  %48 = getelementptr inbounds %struct.lxb_selectors_entry_child, ptr %47, i32 0, i32 0
  %49 = load ptr, ptr %48, align 8
  %50 = icmp eq ptr %49, null
  br i1 %50, label %51, label %52

51:                                               ; preds = %33
  store ptr null, ptr %7, align 8
  br label %90

52:                                               ; preds = %33
  %53 = load ptr, ptr %11, align 8
  %54 = getelementptr inbounds %struct.lxb_css_selector_list, ptr %53, i32 0, i32 3
  %55 = load ptr, ptr %54, align 8
  %56 = icmp eq ptr %55, null
  br i1 %56, label %57, label %59

57:                                               ; preds = %52
  %58 = load ptr, ptr %14, align 8
  store ptr %58, ptr %7, align 8
  br label %90

59:                                               ; preds = %52
  %60 = load ptr, ptr %10, align 8
  %61 = getelementptr inbounds %struct.lxb_selectors_entry_child, ptr %60, i32 0, i32 1
  %62 = load ptr, ptr %61, align 8
  %63 = icmp eq ptr %62, null
  br i1 %63, label %64, label %77

64:                                               ; preds = %59
  %65 = load ptr, ptr %8, align 8
  %66 = getelementptr inbounds %struct.lxb_selectors_t, ptr %65, i32 0, i32 1
  %67 = load ptr, ptr %66, align 8
  %68 = call ptr @lexbor_dobject_calloc(ptr noundef %67)
  %69 = load ptr, ptr %10, align 8
  %70 = getelementptr inbounds %struct.lxb_selectors_entry_child, ptr %69, i32 0, i32 1
  store ptr %68, ptr %70, align 8
  %71 = load ptr, ptr %10, align 8
  %72 = getelementptr inbounds %struct.lxb_selectors_entry_child, ptr %71, i32 0, i32 1
  %73 = load ptr, ptr %72, align 8
  %74 = icmp eq ptr %73, null
  br i1 %74, label %75, label %76

75:                                               ; preds = %64
  br label %87

76:                                               ; preds = %64
  br label %77

77:                                               ; preds = %76, %59
  %78 = load ptr, ptr %10, align 8
  %79 = getelementptr inbounds %struct.lxb_selectors_entry_child, ptr %78, i32 0, i32 1
  %80 = load ptr, ptr %79, align 8
  store ptr %80, ptr %10, align 8
  %81 = load ptr, ptr %11, align 8
  %82 = getelementptr inbounds %struct.lxb_css_selector_list, ptr %81, i32 0, i32 3
  %83 = load ptr, ptr %82, align 8
  store ptr %83, ptr %11, align 8
  br label %84

84:                                               ; preds = %77
  br i1 true, label %33, label %85

85:                                               ; preds = %84
  %86 = load ptr, ptr %14, align 8
  store ptr %86, ptr %7, align 8
  br label %90

87:                                               ; preds = %75, %29
  %88 = load ptr, ptr %8, align 8
  %89 = getelementptr inbounds %struct.lxb_selectors_t, ptr %88, i32 0, i32 2
  store i32 2, ptr %89, align 8
  store ptr null, ptr %7, align 8
  br label %90

90:                                               ; preds = %87, %85, %57, %51, %18
  %91 = load ptr, ptr %7, align 8
  ret ptr %91
}