; Function Attrs: nounwind uwtable
define internal fastcc noundef ptr @lxb_selectors_next(ptr nocapture noundef %0, ptr noundef %1, ptr noundef %2, ptr noundef readonly %3, ptr noundef %4) unnamed_addr #0 {
  %6 = icmp eq ptr %3, null
  br i1 %6, label %.loopexit, label %7

7:                                                ; preds = %5
  %8 = icmp eq ptr %2, null
  br i1 %8, label %9, label %14

9:                                                ; preds = %7
  %10 = getelementptr inbounds i8, ptr %0, i64 8
  %11 = load ptr, ptr %10, align 8
  %12 = tail call ptr @lexbor_dobject_calloc(ptr noundef %11) #6
  %13 = icmp eq ptr %12, null
  br i1 %13, label %.loopexit1, label %14

14:                                               ; preds = %9, %7
  %.0 = phi ptr [ %2, %7 ], [ %12, %9 ]
  %15 = load ptr, ptr %.0, align 8
  %16 = load ptr, ptr %3, align 8
  %17 = tail call fastcc ptr @lxb_selectors_next_by_selector(ptr noundef %0, ptr noundef %1, ptr noundef %15, ptr noundef %16, ptr noundef nonnull @lxb_selectors_first_match, ptr noundef %4)
  store ptr %17, ptr %.0, align 8
  %18 = icmp eq ptr %17, null
  br i1 %18, label %.loopexit, label %.lr.ph

.lr.ph:                                           ; preds = %14
  %19 = getelementptr inbounds i8, ptr %0, i64 8
  br label %20

20:                                               ; preds = %.lr.ph, %32
  %.13 = phi ptr [ %.0, %.lr.ph ], [ %34, %32 ]
  %.0262 = phi ptr [ %3, %.lr.ph ], [ %33, %32 ]
  %21 = getelementptr inbounds i8, ptr %.0262, i64 24
  %22 = load ptr, ptr %21, align 8
  %23 = icmp eq ptr %22, null
  br i1 %23, label %.loopexit, label %24

24:                                               ; preds = %20
  %25 = getelementptr inbounds i8, ptr %.13, i64 8
  %26 = load ptr, ptr %25, align 8
  %27 = icmp eq ptr %26, null
  br i1 %27, label %28, label %32

28:                                               ; preds = %24
  %29 = load ptr, ptr %19, align 8
  %30 = tail call ptr @lexbor_dobject_calloc(ptr noundef %29) #6
  store ptr %30, ptr %25, align 8
  %31 = icmp eq ptr %30, null
  br i1 %31, label %.loopexit1, label %._crit_edge

._crit_edge:                                      ; preds = %28
  %.pre = load ptr, ptr %21, align 8
  br label %32

32:                                               ; preds = %._crit_edge, %24
  %33 = phi ptr [ %.pre, %._crit_edge ], [ %22, %24 ]
  %34 = phi ptr [ %30, %._crit_edge ], [ %26, %24 ]
  %35 = load ptr, ptr %34, align 8
  %36 = load ptr, ptr %33, align 8
  %37 = tail call fastcc ptr @lxb_selectors_next_by_selector(ptr noundef %0, ptr noundef %1, ptr noundef %35, ptr noundef %36, ptr noundef nonnull @lxb_selectors_first_match, ptr noundef %4)
  store ptr %37, ptr %34, align 8
  %38 = icmp eq ptr %37, null
  br i1 %38, label %.loopexit, label %20

.loopexit1:                                       ; preds = %28, %9
  %39 = getelementptr inbounds i8, ptr %0, i64 16
  store i32 2, ptr %39, align 8
  br label %.loopexit

.loopexit:                                        ; preds = %32, %20, %14, %5, %.loopexit1
  %.024 = phi ptr [ null, %.loopexit1 ], [ null, %5 ], [ null, %14 ], [ null, %32 ], [ %.0, %20 ]
  ret ptr %.024
}